; Function Attrs: mustprogress nofree norecurse nosync nounwind willreturn memory(read, inaccessiblemem: none) uwtable
define dso_local i32 @commit_graph_position(ptr noundef readonly captures(none) %0) local_unnamed_addr #4 {
  %2 = getelementptr i8, ptr %0, i64 64
  %.val = load i32, ptr %2, align 8, !tbaa !49
  %3 = udiv i32 %.val, 32766
  %4 = urem i32 %.val, 32766
  %5 = load i32, ptr @commit_graph_data_slab.2, align 8, !tbaa !55
  %.not.i.i = icmp ugt i32 %5, %3
  br i1 %.not.i.i, label %._crit_edge4.i.i, label %commit_graph_data_slab_peek.exit.thread

._crit_edge4.i.i:                                 ; preds = %1
  %.pre.i.i = load ptr, ptr @commit_graph_data_slab.3, align 8, !tbaa !58
  %6 = zext nneg i32 %3 to i64
  %7 = getelementptr inbounds nuw ptr, ptr %.pre.i.i, i64 %6
  %8 = load ptr, ptr %7, align 8, !tbaa !59
  %.not35.i.i = icmp eq ptr %8, null
  br i1 %.not35.i.i, label %commit_graph_data_slab_peek.exit.thread, label %commit_graph_data_slab_peek.exit

commit_graph_data_slab_peek.exit:                 ; preds = %._crit_edge4.i.i
  %9 = zext nneg i32 %4 to i64
  %10 = getelementptr inbounds nuw %struct.commit_graph_data, ptr %8, i64 %9
  %11 = load i32, ptr %10, align 8, !tbaa !61
  br label %commit_graph_data_slab_peek.exit.thread

commit_graph_data_slab_peek.exit.thread:          ; preds = %._crit_edge4.i.i, %1, %commit_graph_data_slab_peek.exit
  %12 = phi i32 [ %11, %commit_graph_data_slab_peek.exit ], [ -1, %1 ], [ -1, %._crit_edge4.i.i ]
  ret i32 %12
}